target datalayout = "e-m:e-p270:32:32-p271:32:32-p272:64:64-i64:64-i128:128-f80:128-n8:16:32:64-S128"
target triple = "x86_64-pc-linux-gnu"

%struct.SockAddr = type { %struct.sockaddr_storage, i32 }
%struct.sockaddr_storage = type { i16, [118 x i8], i64 }
%struct.Port = type { i32, i8, i32, %struct.SockAddr, %struct.SockAddr, ptr, ptr, i32, i32, ptr, ptr, ptr, ptr, ptr, ptr, ptr, i32, i32, i32, i32, i32, i32, i32, i32, [32 x i8], [32 x i8], i8, ptr, i8, ptr, ptr, i8, i8, i8, ptr, ptr, ptr, i64, i64 }

@.str.2 = private unnamed_addr constant [9 x i8] c"pqcomm.c\00", align 1
@PqSendBufferSize = internal global i32 0, align 4
@PqSendBuffer = internal global ptr null, align 8
@PqSendStart = internal global i64 0, align 8
@PqSendPointer = internal global i64 0, align 8
@MyProcPort = external global ptr, align 8
@.str.44 = private unnamed_addr constant [30 x i8] c"there is no client connection\00", align 1
@__func__.socket_set_nonblocking = private unnamed_addr constant [23 x i8] c"socket_set_nonblocking\00", align 1

; Function Attrs: inlinehint nounwind uwtable
define internal i32 @internal_flush() #12 {
  %1 = load ptr, ptr @PqSendBuffer, align 8
  %2 = call i32 @internal_flush_buffer(ptr noundef %1, ptr noundef @PqSendStart, ptr noundef @PqSendPointer)
  ret i32 %2
}

; Function Attrs: nounwind uwtable
define internal void @socket_set_nonblocking(i1 noundef zeroext %0) #0 {
  %2 = alloca i8, align 1
  %3 = zext i1 %0 to i8
  store i8 %3, ptr %2, align 1
  %4 = load ptr, ptr @MyProcPort, align 8
  %5 = icmp eq ptr %4, null
  br i1 %5, label %6, label %17

6:                                                ; preds = %1
  br label %7

7:                                                ; preds = %6
  br i1 true, label %8, label %10

8:                                                ; preds = %7
  %9 = call zeroext i1 @errstart_cold(i32 noundef 21, ptr noundef null) #15
  br i1 %9, label %12, label %15

10:                                               ; preds = %7
  %11 = call zeroext i1 @errstart(i32 noundef 21, ptr noundef null)
  br i1 %11, label %12, label %15

12:                                               ; preds = %10, %8
  %13 = call i32 @errcode(i32 noundef 50332160)
  %14 = call i32 (ptr, ...) @errmsg(ptr noundef @.str.44)
  call void @errfinish(ptr noundef @.str.2, i32 noundef 886, ptr noundef @__func__.socket_set_nonblocking)
  br label %15

15:                                               ; preds = %12, %10, %8
  unreachable

16:                                               ; No predecessors!
  br label %17

17:                                               ; preds = %16, %1
  %18 = load i8, ptr %2, align 1, !range !11, !noundef !12
  %19 = trunc i8 %18 to i1
  %20 = load ptr, ptr @MyProcPort, align 8
  %21 = getelementptr inbounds nuw %struct.Port, ptr %20, i32 0, i32 1
  %22 = zext i1 %19 to i8
  store i8 %22, ptr %21, align 4
  ret void
}

; Function Attrs: inlinehint nounwind uwtable
define internal i32 @internal_putbytes(ptr noundef %0, i64 noundef %1) #12 {
  %3 = alloca i32, align 4
  %4 = alloca ptr, align 8
  %5 = alloca i64, align 8
  %6 = alloca i64, align 8
  %7 = alloca i32, align 4
  %8 = alloca i64, align 8
  store ptr %0, ptr %4, align 8
  store i64 %1, ptr %5, align 8
  br label %9

9:                                                ; preds = %65, %2
  %10 = load i64, ptr %5, align 8
  %11 = icmp ugt i64 %10, 0
  br i1 %11, label %12, label %66

12:                                               ; preds = %9
  %13 = load i64, ptr @PqSendPointer, align 8
  %14 = load i32, ptr @PqSendBufferSize, align 4
  %15 = sext i32 %14 to i64
  %16 = icmp uge i64 %13, %15
  br i1 %16, label %17, label %22

17:                                               ; preds = %12
  call void @socket_set_nonblocking(i1 noundef zeroext false)
  %18 = call i32 @internal_flush()
  %19 = icmp ne i32 %18, 0
  br i1 %19, label %20, label %21

20:                                               ; preds = %17
  store i32 -1, ptr %3, align 4
  br label %67

21:                                               ; preds = %17
  br label %22

22:                                               ; preds = %21, %12
  %23 = load i64, ptr %5, align 8
  %24 = load i32, ptr @PqSendBufferSize, align 4
  %25 = sext i32 %24 to i64
  %26 = icmp uge i64 %23, %25
  br i1 %26, label %27, label %40

27:                                               ; preds = %22
  %28 = load i64, ptr @PqSendStart, align 8
  %29 = load i64, ptr @PqSendPointer, align 8
  %30 = icmp eq i64 %28, %29
  br i1 %30, label %31, label %40

31:                                               ; preds = %27
  call void @llvm.lifetime.start.p0(i64 8, ptr %6) #14
  store i64 0, ptr %6, align 8
  call void @socket_set_nonblocking(i1 noundef zeroext false)
  %32 = load ptr, ptr %4, align 8
  %33 = call i32 @internal_flush_buffer(ptr noundef %32, ptr noundef %6, ptr noundef %5)
  %34 = icmp ne i32 %33, 0
  br i1 %34, label %35, label %36

35:                                               ; preds = %31
  store i32 -1, ptr %3, align 4
  store i32 1, ptr %7, align 4
  br label %37

36:                                               ; preds = %31
  store i32 0, ptr %7, align 4
  br label %37

37:                                               ; preds = %36, %35
  call void @llvm.lifetime.end.p0(i64 8, ptr %6) #14
  %38 = load i32, ptr %7, align 4
  switch i32 %38, label %69 [
    i32 0, label %39
    i32 1, label %67
  ]

39:                                               ; preds = %37
  br label %65

40:                                               ; preds = %27, %22
  call void @llvm.lifetime.start.p0(i64 8, ptr %8) #14
  %41 = load i32, ptr @PqSendBufferSize, align 4
  %42 = sext i32 %41 to i64
  %43 = load i64, ptr @PqSendPointer, align 8
  %44 = sub i64 %42, %43
  store i64 %44, ptr %8, align 8
  %45 = load i64, ptr %8, align 8
  %46 = load i64, ptr %5, align 8
  %47 = icmp ugt i64 %45, %46
  br i1 %47, label %48, label %50

48:                                               ; preds = %40
  %49 = load i64, ptr %5, align 8
  store i64 %49, ptr %8, align 8
  br label %50

50:                                               ; preds = %48, %40
  %51 = load ptr, ptr @PqSendBuffer, align 8
  %52 = load i64, ptr @PqSendPointer, align 8
  %53 = getelementptr inbounds nuw i8, ptr %51, i64 %52
  %54 = load ptr, ptr %4, align 8
  %55 = load i64, ptr %8, align 8
  call void @llvm.memcpy.p0.p0.i64(ptr align 1 %53, ptr align 1 %54, i64 %55, i1 false)
  %56 = load i64, ptr %8, align 8
  %57 = load i64, ptr @PqSendPointer, align 8
  %58 = add i64 %57, %56
  store i64 %58, ptr @PqSendPointer, align 8
  %59 = load i64, ptr %8, align 8
  %60 = load ptr, ptr %4, align 8
  %61 = getelementptr inbounds nuw i8, ptr %60, i64 %59
  store ptr %61, ptr %4, align 8
  %62 = load i64, ptr %8, align 8
  %63 = load i64, ptr %5, align 8
  %64 = sub i64 %63, %62
  store i64 %64, ptr %5, align 8
  call void @llvm.lifetime.end.p0(i64 8, ptr %8) #14
  br label %65

65:                                               ; preds = %50, %39
  br label %9, !llvm.loop !17

66:                                               ; preds = %9
  store i32 0, ptr %3, align 4
  br label %67

67:                                               ; preds = %66, %37, %20
  %68 = load i32, ptr %3, align 4
  ret i32 %68

69:                                               ; preds = %37
  unreachable
}