; Function Attrs: inlinehint nounwind uwtable
define internal fastcc range(i32 -1, 1) i32 @internal_putbytes(ptr noundef %0, i64 noundef %1) unnamed_addr #16 {
  %3 = alloca i64, align 8
  %4 = alloca i64, align 8
  store i64 %1, ptr %3, align 8
  %.not20 = icmp eq i64 %1, 0
  br i1 %.not20, label %socket_set_nonblocking.exit19._crit_edge, label %.lr.ph.preheader

.lr.ph.preheader:                                 ; preds = %2
  %.pre24 = load i64, ptr @PqSendPointer, align 8
  %.pre26 = load i32, ptr @PqSendBufferSize, align 4
  br label %.lr.ph

.lr.ph:                                           ; preds = %.lr.ph.preheader, %40
  %5 = phi i32 [ %41, %40 ], [ %.pre26, %.lr.ph.preheader ]
  %6 = phi i64 [ %42, %40 ], [ %.pre24, %.lr.ph.preheader ]
  %.01021 = phi ptr [ %.1, %40 ], [ %0, %.lr.ph.preheader ]
  %7 = phi i64 [ %.pr, %40 ], [ %1, %.lr.ph.preheader ]
  %8 = zext nneg i32 %5 to i64
  %.not15 = icmp ult i64 %6, %8
  br i1 %.not15, label %19, label %9

9:                                                ; preds = %.lr.ph
  %10 = load ptr, ptr @MyProcPort, align 8
  %11 = icmp eq ptr %10, null
  br i1 %11, label %12, label %socket_set_nonblocking.exit

12:                                               ; preds = %9
  %13 = tail call zeroext i1 @errstart_cold(i32 noundef 21, ptr noundef null) #22
  tail call void @llvm.assume(i1 %13)
  %14 = tail call i32 @errcode(i32 noundef 50332160) #21
  %15 = tail call i32 (ptr, ...) @errmsg(ptr noundef nonnull @.str.44) #21
  tail call void @errfinish(ptr noundef nonnull @.str.2, i32 noundef 886, ptr noundef nonnull @__func__.socket_set_nonblocking) #21
  unreachable

socket_set_nonblocking.exit:                      ; preds = %9
  %16 = getelementptr inbounds nuw i8, ptr %10, i64 4
  store i8 0, ptr %16, align 4
  %17 = load ptr, ptr @PqSendBuffer, align 8
  %18 = tail call fastcc range(i32 -1, 1) i32 @internal_flush_buffer(ptr noundef %17, ptr noundef nonnull @PqSendStart, ptr noundef nonnull @PqSendPointer)
  %.not16 = icmp eq i32 %18, 0
  br i1 %.not16, label %socket_set_nonblocking.exit._crit_edge, label %socket_set_nonblocking.exit19._crit_edge

socket_set_nonblocking.exit._crit_edge:           ; preds = %socket_set_nonblocking.exit
  %.pre27 = load i32, ptr @PqSendBufferSize, align 4
  %.pre28.pre = load i64, ptr @PqSendPointer, align 8
  %.pre32 = zext nneg i32 %.pre27 to i64
  br label %19

19:                                               ; preds = %socket_set_nonblocking.exit._crit_edge, %.lr.ph
  %.pre-phi = phi i64 [ %.pre32, %socket_set_nonblocking.exit._crit_edge ], [ %8, %.lr.ph ]
  %.pre28 = phi i64 [ %.pre28.pre, %socket_set_nonblocking.exit._crit_edge ], [ %6, %.lr.ph ]
  %20 = phi i32 [ %.pre27, %socket_set_nonblocking.exit._crit_edge ], [ %5, %.lr.ph ]
  %.not17 = icmp uge i64 %7, %.pre-phi
  %21 = load i64, ptr @PqSendStart, align 8
  %22 = icmp eq i64 %21, %.pre28
  %or.cond = select i1 %.not17, i1 %22, i1 false
  br i1 %or.cond, label %23, label %32

23:                                               ; preds = %19
  call void @llvm.lifetime.start.p0(i64 8, ptr nonnull %4) #21
  store i64 0, ptr %4, align 8
  %24 = load ptr, ptr @MyProcPort, align 8
  %25 = icmp eq ptr %24, null
  br i1 %25, label %26, label %socket_set_nonblocking.exit19

26:                                               ; preds = %23
  %27 = tail call zeroext i1 @errstart_cold(i32 noundef 21, ptr noundef null) #22
  tail call void @llvm.assume(i1 %27)
  %28 = tail call i32 @errcode(i32 noundef 50332160) #21
  %29 = tail call i32 (ptr, ...) @errmsg(ptr noundef nonnull @.str.44) #21
  tail call void @errfinish(ptr noundef nonnull @.str.2, i32 noundef 886, ptr noundef nonnull @__func__.socket_set_nonblocking) #21
  unreachable

socket_set_nonblocking.exit19:                    ; preds = %23
  %30 = getelementptr inbounds nuw i8, ptr %24, i64 4
  store i8 0, ptr %30, align 4
  %31 = call fastcc i32 @internal_flush_buffer(ptr noundef %.01021, ptr noundef nonnull %4, ptr noundef nonnull %3)
  %.not18.not = icmp eq i32 %31, 0
  call void @llvm.lifetime.end.p0(i64 8, ptr nonnull %4) #21
  br i1 %.not18.not, label %socket_set_nonblocking.exit19._crit_edge29, label %socket_set_nonblocking.exit19._crit_edge

socket_set_nonblocking.exit19._crit_edge29:       ; preds = %socket_set_nonblocking.exit19
  %.pre25 = load i32, ptr @PqSendBufferSize, align 4
  %.pre = load i64, ptr @PqSendPointer, align 8
  %.pr.pre = load i64, ptr %3, align 8
  br label %40

32:                                               ; preds = %19
  %33 = sub i64 %.pre-phi, %.pre28
  %spec.select = tail call i64 @llvm.umin.i64(i64 %33, i64 %7)
  %34 = load ptr, ptr @PqSendBuffer, align 8
  %35 = getelementptr inbounds nuw i8, ptr %34, i64 %.pre28
  tail call void @llvm.memcpy.p0.p0.i64(ptr align 1 %35, ptr align 1 %.01021, i64 %spec.select, i1 false)
  %36 = load i64, ptr @PqSendPointer, align 8
  %37 = add i64 %36, %spec.select
  store i64 %37, ptr @PqSendPointer, align 8
  %38 = getelementptr inbounds nuw i8, ptr %.01021, i64 %spec.select
  %39 = sub i64 %7, %spec.select
  store i64 %39, ptr %3, align 8
  br label %40

40:                                               ; preds = %socket_set_nonblocking.exit19._crit_edge29, %32
  %.pr = phi i64 [ %.pr.pre, %socket_set_nonblocking.exit19._crit_edge29 ], [ %39, %32 ]
  %41 = phi i32 [ %.pre25, %socket_set_nonblocking.exit19._crit_edge29 ], [ %20, %32 ]
  %42 = phi i64 [ %.pre, %socket_set_nonblocking.exit19._crit_edge29 ], [ %37, %32 ]
  %.1 = phi ptr [ %.01021, %socket_set_nonblocking.exit19._crit_edge29 ], [ %38, %32 ]
  %.not = icmp eq i64 %.pr, 0
  br i1 %.not, label %socket_set_nonblocking.exit19._crit_edge, label %.lr.ph, !llvm.loop !12

socket_set_nonblocking.exit19._crit_edge:         ; preds = %socket_set_nonblocking.exit, %40, %socket_set_nonblocking.exit19, %2
  %.112 = phi i32 [ 0, %2 ], [ -1, %socket_set_nonblocking.exit19 ], [ 0, %40 ], [ -1, %socket_set_nonblocking.exit ]
  ret i32 %.112
}